target datalayout = "e-m:e-p270:32:32-p271:32:32-p272:64:64-i64:64-i128:128-f80:128-n8:16:32:64-S128"
target triple = "x86_64-pc-linux-gnu"

%struct.Clobbers = type { [4 x i64] }
%struct.VHeader_ = type { i32, i32, [0 x i8] }
%struct.AsmInlineBlock = type { %struct.Clobbers, ptr, i32, ptr, ptr }
%struct.ExprAsmArg = type { i64, %union.anon.44 }
%union.anon.44 = type { %struct.anon.45 }
%struct.anon.45 = type { %union.anon.46, i8 }
%union.anon.46 = type { ptr }

@.str.30 = private unnamed_addr constant [22 x i8] c"Too many output vars.\00", align 1

; Function Attrs: nounwind uwtable
define internal ptr @vec_new_(i64 noundef %0, i64 noundef %1) #0 {
  %3 = alloca i64, align 8
  %4 = alloca i64, align 8
  %5 = alloca ptr, align 8
  store i64 %0, ptr %3, align 8
  store i64 %1, ptr %4, align 8
  %6 = load i64, ptr %3, align 8
  %7 = load i64, ptr %4, align 8
  %8 = mul i64 %6, %7
  %9 = add i64 %8, 8
  %10 = call ptr @calloc_arena(i64 noundef %9)
  store ptr %10, ptr %5, align 8
  %11 = load i64, ptr %4, align 8
  %12 = trunc i64 %11 to i32
  %13 = load ptr, ptr %5, align 8
  %14 = getelementptr inbounds %struct.VHeader_, ptr %13, i32 0, i32 1
  store i32 %12, ptr %14, align 4
  %15 = load ptr, ptr %5, align 8
  ret ptr %15
}

; Function Attrs: nounwind uwtable
define internal ptr @expand_(ptr noundef %0, i64 noundef %1) #0 {
  %3 = alloca ptr, align 8
  %4 = alloca i64, align 8
  %5 = alloca ptr, align 8
  %6 = alloca ptr, align 8
  %7 = alloca i64, align 8
  store ptr %0, ptr %3, align 8
  store i64 %1, ptr %4, align 8
  %8 = load ptr, ptr %3, align 8
  %9 = icmp ne ptr %8, null
  br i1 %9, label %13, label %10

10:                                               ; preds = %2
  %11 = load i64, ptr %4, align 8
  %12 = call ptr @vec_new_(i64 noundef %11, i64 noundef 8)
  store ptr %12, ptr %5, align 8
  br label %16

13:                                               ; preds = %2
  %14 = load ptr, ptr %3, align 8
  %15 = getelementptr inbounds %struct.VHeader_, ptr %14, i64 -1
  store ptr %15, ptr %5, align 8
  br label %16

16:                                               ; preds = %13, %10
  %17 = load ptr, ptr %5, align 8
  %18 = getelementptr inbounds %struct.VHeader_, ptr %17, i32 0, i32 0
  %19 = load i32, ptr %18, align 4
  %20 = load ptr, ptr %5, align 8
  %21 = getelementptr inbounds %struct.VHeader_, ptr %20, i32 0, i32 1
  %22 = load i32, ptr %21, align 4
  %23 = icmp eq i32 %19, %22
  br i1 %23, label %24, label %49

24:                                               ; preds = %16
  %25 = load i64, ptr %4, align 8
  %26 = load ptr, ptr %5, align 8
  %27 = getelementptr inbounds %struct.VHeader_, ptr %26, i32 0, i32 1
  %28 = load i32, ptr %27, align 4
  %29 = shl i32 %28, 1
  %30 = zext i32 %29 to i64
  %31 = call ptr @vec_new_(i64 noundef %25, i64 noundef %30)
  store ptr %31, ptr %6, align 8
  %32 = load i64, ptr %4, align 8
  %33 = load ptr, ptr %5, align 8
  %34 = getelementptr inbounds %struct.VHeader_, ptr %33, i32 0, i32 1
  %35 = load i32, ptr %34, align 4
  %36 = zext i32 %35 to i64
  %37 = mul i64 %32, %36
  %38 = add i64 %37, 8
  store i64 %38, ptr %7, align 8
  %39 = load ptr, ptr %6, align 8
  %40 = load ptr, ptr %5, align 8
  %41 = load i64, ptr %7, align 8
  call void @llvm.memcpy.p0.p0.i64(ptr align 4 %39, ptr align 4 %40, i64 %41, i1 false)
  %42 = load ptr, ptr %6, align 8
  store ptr %42, ptr %5, align 8
  %43 = load ptr, ptr %5, align 8
  %44 = getelementptr inbounds %struct.VHeader_, ptr %43, i32 0, i32 1
  %45 = load i32, ptr %44, align 4
  %46 = shl i32 %45, 1
  %47 = load ptr, ptr %6, align 8
  %48 = getelementptr inbounds %struct.VHeader_, ptr %47, i32 0, i32 1
  store i32 %46, ptr %48, align 4
  br label %49

49:                                               ; preds = %24, %16
  %50 = load ptr, ptr %5, align 8
  %51 = getelementptr inbounds %struct.VHeader_, ptr %50, i32 0, i32 0
  %52 = load i32, ptr %51, align 4
  %53 = add i32 %52, 1
  store i32 %53, ptr %51, align 4
  %54 = load ptr, ptr %5, align 8
  %55 = getelementptr inbounds %struct.VHeader_, ptr %54, i64 1
  ret ptr %55
}

; Function Attrs: nounwind uwtable
define internal ptr @asm_reg_find_decl(ptr noundef %0, ptr noundef %1, i32 noundef %2) #0 {
  %4 = alloca i32, align 4
  %5 = alloca ptr, align 8
  %6 = alloca ptr, align 8
  %7 = alloca ptr, align 8
  %8 = alloca ptr, align 8
  %9 = alloca ptr, align 8
  %10 = alloca i32, align 4
  %11 = alloca ptr, align 8
  %12 = alloca i32, align 4
  %13 = alloca i32, align 4
  %14 = alloca ptr, align 8
  store ptr %0, ptr %8, align 8
  store ptr %1, ptr %9, align 8
  store i32 %2, ptr %10, align 4
  %15 = load ptr, ptr %8, align 8
  store ptr %15, ptr %11, align 8
  %16 = load ptr, ptr %11, align 8
  store ptr %16, ptr %5, align 8
  %17 = load ptr, ptr %5, align 8
  %18 = icmp ne ptr %17, null
  br i1 %18, label %20, label %19

19:                                               ; preds = %3
  store i32 0, ptr %4, align 4
  br label %25

20:                                               ; preds = %3
  %21 = load ptr, ptr %5, align 8
  store ptr %21, ptr %6, align 8
  %22 = load ptr, ptr %6, align 8
  %23 = getelementptr inbounds %struct.VHeader_, ptr %22, i64 -1
  %24 = load i32, ptr %23, align 4
  store i32 %24, ptr %4, align 4
  br label %25

25:                                               ; preds = %20, %19
  %26 = load i32, ptr %4, align 4
  store i32 %26, ptr %12, align 4
  store i32 0, ptr %13, align 4
  br label %27

27:                                               ; preds = %53, %25
  %28 = load i32, ptr %13, align 4
  %29 = load i32, ptr %12, align 4
  %30 = icmp ult i32 %28, %29
  br i1 %30, label %31, label %56

31:                                               ; preds = %27
  %32 = load ptr, ptr %11, align 8
  %33 = load i32, ptr %13, align 4
  %34 = zext i32 %33 to i64
  %35 = getelementptr inbounds ptr, ptr %32, i64 %34
  %36 = load ptr, ptr %35, align 8
  store ptr %36, ptr %14, align 8
  %37 = load ptr, ptr %14, align 8
  %38 = load i64, ptr %37, align 8
  %39 = and i64 %38, 255
  %40 = trunc i64 %39 to i32
  %41 = load i32, ptr %10, align 4
  %42 = icmp eq i32 %40, %41
  br i1 %42, label %43, label %52

43:                                               ; preds = %31
  %44 = load ptr, ptr %14, align 8
  %45 = getelementptr inbounds %struct.ExprAsmArg, ptr %44, i32 0, i32 1
  %46 = getelementptr inbounds %struct.anon.45, ptr %45, i32 0, i32 0
  %47 = load ptr, ptr %46, align 8
  %48 = load ptr, ptr %9, align 8
  %49 = icmp eq ptr %47, %48
  br i1 %49, label %50, label %52

50:                                               ; preds = %43
  %51 = load ptr, ptr %14, align 8
  store ptr %51, ptr %7, align 8
  br label %59

52:                                               ; preds = %43, %31
  br label %53

53:                                               ; preds = %52
  %54 = load i32, ptr %13, align 4
  %55 = add i32 %54, 1
  store i32 %55, ptr %13, align 4
  br label %27, !llvm.loop !11

56:                                               ; preds = %27
  br label %57

57:                                               ; preds = %56
  br label %58

58:                                               ; preds = %57
  store ptr null, ptr %7, align 8
  br label %59

59:                                               ; preds = %58, %50
  %60 = load ptr, ptr %7, align 8
  ret ptr %60
}

; Function Attrs: nounwind uwtable
define internal void @asm_reg_add_output(ptr noundef %0, ptr noundef %1) #0 {
  %3 = alloca i32, align 4
  %4 = alloca ptr, align 8
  %5 = alloca ptr, align 8
  %6 = alloca i32, align 4
  %7 = alloca ptr, align 8
  %8 = alloca ptr, align 8
  %9 = alloca ptr, align 8
  %10 = alloca ptr, align 8
  %11 = alloca ptr, align 8
  %12 = alloca ptr, align 8
  %13 = alloca i32, align 4
  %14 = alloca ptr, align 8
  %15 = alloca ptr, align 8
  store ptr %0, ptr %9, align 8
  store ptr %1, ptr %10, align 8
  %16 = load ptr, ptr %10, align 8
  %17 = getelementptr inbounds %struct.ExprAsmArg, ptr %16, i32 0, i32 1
  %18 = getelementptr inbounds %struct.anon.45, ptr %17, i32 0, i32 0
  %19 = load ptr, ptr %18, align 8
  store ptr %19, ptr %11, align 8
  %20 = load ptr, ptr %9, align 8
  %21 = getelementptr inbounds %struct.AsmInlineBlock, ptr %20, i32 0, i32 3
  %22 = load ptr, ptr %21, align 8
  %23 = load ptr, ptr %11, align 8
  %24 = load ptr, ptr %10, align 8
  %25 = load i64, ptr %24, align 8
  %26 = and i64 %25, 255
  %27 = trunc i64 %26 to i32
  %28 = call ptr @asm_reg_find_decl(ptr noundef %22, ptr noundef %23, i32 noundef %27)
  store ptr %28, ptr %12, align 8
  %29 = load ptr, ptr %12, align 8
  %30 = icmp ne ptr %29, null
  br i1 %30, label %31, label %36

31:                                               ; preds = %2
  %32 = load ptr, ptr %10, align 8
  %33 = getelementptr inbounds %struct.ExprAsmArg, ptr %32, i32 0, i32 1
  %34 = load ptr, ptr %12, align 8
  %35 = getelementptr inbounds %struct.ExprAsmArg, ptr %34, i32 0, i32 1
  call void @llvm.memcpy.p0.p0.i64(ptr align 8 %33, ptr align 8 %35, i64 16, i1 false)
  br label %130

36:                                               ; preds = %2
  %37 = load ptr, ptr %9, align 8
  %38 = getelementptr inbounds %struct.AsmInlineBlock, ptr %37, i32 0, i32 3
  %39 = load ptr, ptr %38, align 8
  store ptr %39, ptr %4, align 8
  %40 = load ptr, ptr %4, align 8
  %41 = icmp ne ptr %40, null
  br i1 %41, label %43, label %42

42:                                               ; preds = %36
  store i32 0, ptr %3, align 4
  br label %48

43:                                               ; preds = %36
  %44 = load ptr, ptr %4, align 8
  store ptr %44, ptr %5, align 8
  %45 = load ptr, ptr %5, align 8
  %46 = getelementptr inbounds %struct.VHeader_, ptr %45, i64 -1
  %47 = load i32, ptr %46, align 4
  store i32 %47, ptr %3, align 4
  br label %48

48:                                               ; preds = %43, %42
  %49 = load i32, ptr %3, align 4
  store i32 %49, ptr %13, align 4
  %50 = load i32, ptr %13, align 4
  %51 = icmp ugt i32 %50, 65535
  br i1 %51, label %52, label %53

52:                                               ; preds = %48
  call void (ptr, ...) @error_exit(ptr noundef @.str.30) #4
  unreachable

53:                                               ; preds = %48
  %54 = load i32, ptr %13, align 4
  %55 = trunc i32 %54 to i16
  %56 = load ptr, ptr %10, align 8
  %57 = zext i16 %55 to i64
  %58 = load i64, ptr %56, align 8
  %59 = and i64 %57, 65535
  %60 = shl i64 %59, 16
  %61 = and i64 %58, -4294901761
  %62 = or i64 %61, %60
  store i64 %62, ptr %56, align 8
  br label %63

63:                                               ; preds = %53
  %64 = load ptr, ptr %9, align 8
  %65 = getelementptr inbounds %struct.AsmInlineBlock, ptr %64, i32 0, i32 3
  %66 = load ptr, ptr %65, align 8
  %67 = call ptr @expand_(ptr noundef %66, i64 noundef 8)
  store ptr %67, ptr %14, align 8
  %68 = load ptr, ptr %14, align 8
  %69 = load ptr, ptr %9, align 8
  %70 = getelementptr inbounds %struct.AsmInlineBlock, ptr %69, i32 0, i32 3
  store ptr %68, ptr %70, align 8
  %71 = load ptr, ptr %10, align 8
  %72 = load ptr, ptr %9, align 8
  %73 = getelementptr inbounds %struct.AsmInlineBlock, ptr %72, i32 0, i32 3
  %74 = load ptr, ptr %73, align 8
  %75 = load ptr, ptr %9, align 8
  %76 = getelementptr inbounds %struct.AsmInlineBlock, ptr %75, i32 0, i32 3
  %77 = load ptr, ptr %76, align 8
  store ptr %77, ptr %7, align 8
  %78 = load ptr, ptr %7, align 8
  %79 = icmp ne ptr %78, null
  br i1 %79, label %81, label %80

80:                                               ; preds = %63
  store i32 0, ptr %6, align 4
  br label %86

81:                                               ; preds = %63
  %82 = load ptr, ptr %7, align 8
  store ptr %82, ptr %8, align 8
  %83 = load ptr, ptr %8, align 8
  %84 = getelementptr inbounds %struct.VHeader_, ptr %83, i64 -1
  %85 = load i32, ptr %84, align 4
  store i32 %85, ptr %6, align 4
  br label %86

86:                                               ; preds = %81, %80
  %87 = load i32, ptr %6, align 4
  %88 = sub i32 %87, 1
  %89 = zext i32 %88 to i64
  %90 = getelementptr inbounds ptr, ptr %74, i64 %89
  store ptr %71, ptr %90, align 8
  br label %91

91:                                               ; preds = %86
  %92 = load ptr, ptr %10, align 8
  %93 = load i64, ptr %92, align 8
  %94 = and i64 %93, 255
  %95 = trunc i64 %94 to i32
  %96 = icmp eq i32 %95, 4
  br i1 %96, label %97, label %98

97:                                               ; preds = %91
  br label %130

98:                                               ; preds = %91
  %99 = load ptr, ptr %9, align 8
  %100 = getelementptr inbounds %struct.AsmInlineBlock, ptr %99, i32 0, i32 4
  %101 = load ptr, ptr %100, align 8
  %102 = load ptr, ptr %11, align 8
  %103 = load ptr, ptr %10, align 8
  %104 = load i64, ptr %103, align 8
  %105 = and i64 %104, 255
  %106 = trunc i64 %105 to i32
  %107 = call ptr @asm_reg_find_decl(ptr noundef %101, ptr noundef %102, i32 noundef %106)
  store ptr %107, ptr %15, align 8
  %108 = load ptr, ptr %15, align 8
  %109 = icmp ne ptr %108, null
  br i1 %109, label %110, label %129

110:                                              ; preds = %98
  %111 = load ptr, ptr %15, align 8
  %112 = getelementptr inbounds %struct.ExprAsmArg, ptr %111, i32 0, i32 1
  %113 = getelementptr inbounds %struct.anon.45, ptr %112, i32 0, i32 1
  %114 = load i8, ptr %113, align 8
  %115 = and i8 %114, -2
  %116 = or i8 %115, 1
  store i8 %116, ptr %113, align 8
  %117 = load ptr, ptr %10, align 8
  %118 = load i64, ptr %117, align 8
  %119 = lshr i64 %118, 16
  %120 = and i64 %119, 65535
  %121 = trunc i64 %120 to i16
  %122 = load ptr, ptr %15, align 8
  %123 = zext i16 %121 to i64
  %124 = load i64, ptr %122, align 8
  %125 = and i64 %123, 65535
  %126 = shl i64 %125, 16
  %127 = and i64 %124, -4294901761
  %128 = or i64 %127, %126
  store i64 %128, ptr %122, align 8
  br label %129

129:                                              ; preds = %110, %98
  br label %130

130:                                              ; preds = %129, %97, %31
  ret void
}