; Function Attrs: nounwind uwtable
define internal fastcc void @asm_reg_add_output(ptr nocapture noundef %0, ptr noundef %1) unnamed_addr #0 {
  %3 = getelementptr inbounds i8, ptr %1, i64 8
  %4 = load ptr, ptr %3, align 8
  %5 = getelementptr inbounds i8, ptr %0, i64 48
  %6 = load ptr, ptr %5, align 8
  %7 = load i64, ptr %1, align 8
  %.not.i = icmp eq ptr %6, null
  br i1 %.not.i, label %.thread54, label %8

8:                                                ; preds = %2
  %9 = getelementptr inbounds i8, ptr %6, i64 -8
  %10 = load i32, ptr %9, align 4
  %.not22.i = icmp eq i32 %10, 0
  br i1 %.not22.i, label %.thread54, label %.lr.ph.preheader.i

.lr.ph.preheader.i:                               ; preds = %8
  %wide.trip.count.i = zext i32 %10 to i64
  br label %.lr.ph.i

.lr.ph.i:                                         ; preds = %21, %.lr.ph.preheader.i
  %indvars.iv.i = phi i64 [ 0, %.lr.ph.preheader.i ], [ %indvars.iv.next.i, %21 ]
  %11 = getelementptr inbounds ptr, ptr %6, i64 %indvars.iv.i
  %12 = load ptr, ptr %11, align 8
  %13 = load i64, ptr %12, align 8
  %14 = xor i64 %13, %7
  %15 = and i64 %14, 255
  %16 = icmp eq i64 %15, 0
  br i1 %16, label %17, label %21

17:                                               ; preds = %.lr.ph.i
  %18 = getelementptr inbounds i8, ptr %12, i64 8
  %19 = load ptr, ptr %18, align 8
  %20 = icmp eq ptr %19, %4
  br i1 %20, label %asm_reg_find_decl.exit, label %21

21:                                               ; preds = %17, %.lr.ph.i
  %indvars.iv.next.i = add nuw nsw i64 %indvars.iv.i, 1
  %exitcond.not.i = icmp eq i64 %indvars.iv.next.i, %wide.trip.count.i
  br i1 %exitcond.not.i, label %.loopexit, label %.lr.ph.i, !llvm.loop !10

asm_reg_find_decl.exit:                           ; preds = %17
  %22 = getelementptr inbounds i8, ptr %12, i64 8
  tail call void @llvm.memcpy.p0.p0.i64(ptr noundef nonnull align 8 dereferenceable(16) %3, ptr noundef nonnull align 8 dereferenceable(16) %22, i64 16, i1 false)
  br label %asm_reg_find_decl.exit51.thread

.loopexit:                                        ; preds = %21
  %23 = icmp ugt i32 %10, 65535
  br i1 %23, label %24, label %.thread54

24:                                               ; preds = %.loopexit
  tail call void (ptr, ...) @error_exit(ptr noundef nonnull @.str.30) #5
  unreachable

.thread54:                                        ; preds = %8, %2, %.loopexit
  %.056 = phi i32 [ %10, %.loopexit ], [ 0, %2 ], [ 0, %8 ]
  %25 = shl nuw i32 %.056, 16
  %26 = zext i32 %25 to i64
  %27 = and i64 %7, -4294901761
  %28 = or disjoint i64 %27, %26
  store i64 %28, ptr %1, align 8
  %29 = load ptr, ptr %5, align 8
  %.not.i41 = icmp eq ptr %29, null
  br i1 %.not.i41, label %30, label %33

30:                                               ; preds = %.thread54
  %31 = tail call ptr @calloc_arena(i64 noundef 72) #4
  %32 = getelementptr inbounds i8, ptr %31, i64 4
  store i32 8, ptr %32, align 4
  br label %35

33:                                               ; preds = %.thread54
  %34 = getelementptr inbounds i8, ptr %29, i64 -8
  %.phi.trans.insert.i = getelementptr inbounds i8, ptr %29, i64 -4
  %.pre.i = load i32, ptr %.phi.trans.insert.i, align 4
  br label %35

35:                                               ; preds = %33, %30
  %36 = phi i32 [ %.pre.i, %33 ], [ 8, %30 ]
  %.0.i = phi ptr [ %34, %33 ], [ %31, %30 ]
  %37 = load i32, ptr %.0.i, align 4
  %38 = icmp eq i32 %37, %36
  br i1 %38, label %39, label %53

39:                                               ; preds = %35
  %40 = getelementptr inbounds i8, ptr %.0.i, i64 4
  %41 = shl i32 %36, 1
  %42 = zext i32 %41 to i64
  %43 = shl nuw nsw i64 %42, 3
  %44 = or disjoint i64 %43, 8
  %45 = tail call ptr @calloc_arena(i64 noundef %44) #4
  %46 = getelementptr inbounds i8, ptr %45, i64 4
  store i32 %41, ptr %46, align 4
  %47 = load i32, ptr %40, align 4
  %48 = zext i32 %47 to i64
  %49 = shl nuw nsw i64 %48, 3
  %50 = add nuw nsw i64 %49, 8
  tail call void @llvm.memcpy.p0.p0.i64(ptr noundef nonnull align 4 dereferenceable(1) %45, ptr noundef nonnull align 4 dereferenceable(1) %.0.i, i64 %50, i1 false)
  %51 = load i32, ptr %46, align 4
  %52 = shl i32 %51, 1
  store i32 %52, ptr %46, align 4
  %.pre18.i = load i32, ptr %45, align 4
  br label %53

53:                                               ; preds = %35, %39
  %54 = phi i32 [ %.pre18.i, %39 ], [ %37, %35 ]
  %.1.i = phi ptr [ %45, %39 ], [ %.0.i, %35 ]
  %55 = add i32 %54, 1
  store i32 %55, ptr %.1.i, align 4
  %56 = getelementptr inbounds i8, ptr %.1.i, i64 8
  store ptr %56, ptr %5, align 8
  %57 = load i32, ptr %.1.i, align 4
  %58 = add i32 %57, -1
  %59 = zext i32 %58 to i64
  %60 = getelementptr inbounds ptr, ptr %56, i64 %59
  store ptr %1, ptr %60, align 8
  %61 = load i64, ptr %1, align 8
  %62 = trunc i64 %61 to i32
  %63 = and i32 %62, 255
  %64 = icmp eq i32 %63, 4
  br i1 %64, label %asm_reg_find_decl.exit51.thread, label %65

65:                                               ; preds = %53
  %66 = getelementptr inbounds i8, ptr %0, i64 56
  %67 = load ptr, ptr %66, align 8
  %.not.i42 = icmp eq ptr %67, null
  br i1 %.not.i42, label %asm_reg_find_decl.exit51.thread, label %68

68:                                               ; preds = %65
  %69 = getelementptr inbounds i8, ptr %67, i64 -8
  %70 = load i32, ptr %69, align 4
  %.not22.i43 = icmp eq i32 %70, 0
  br i1 %.not22.i43, label %asm_reg_find_decl.exit51.thread, label %.lr.ph.preheader.i44

.lr.ph.preheader.i44:                             ; preds = %68
  %wide.trip.count.i45 = zext i32 %70 to i64
  br label %.lr.ph.i46

.lr.ph.i46:                                       ; preds = %81, %.lr.ph.preheader.i44
  %indvars.iv.i47 = phi i64 [ 0, %.lr.ph.preheader.i44 ], [ %indvars.iv.next.i48, %81 ]
  %71 = getelementptr inbounds ptr, ptr %67, i64 %indvars.iv.i47
  %72 = load ptr, ptr %71, align 8
  %73 = load i64, ptr %72, align 8
  %74 = trunc i64 %73 to i32
  %75 = and i32 %74, 255
  %76 = icmp eq i32 %75, %63
  br i1 %76, label %77, label %81

77:                                               ; preds = %.lr.ph.i46
  %78 = getelementptr inbounds i8, ptr %72, i64 8
  %79 = load ptr, ptr %78, align 8
  %80 = icmp eq ptr %79, %4
  br i1 %80, label %asm_reg_find_decl.exit51, label %81

81:                                               ; preds = %77, %.lr.ph.i46
  %indvars.iv.next.i48 = add nuw nsw i64 %indvars.iv.i47, 1
  %exitcond.not.i49 = icmp eq i64 %indvars.iv.next.i48, %wide.trip.count.i45
  br i1 %exitcond.not.i49, label %asm_reg_find_decl.exit51.thread, label %.lr.ph.i46, !llvm.loop !10

asm_reg_find_decl.exit51:                         ; preds = %77
  %82 = getelementptr inbounds i8, ptr %72, i64 16
  %83 = load i8, ptr %82, align 8
  %84 = or i8 %83, 1
  store i8 %84, ptr %82, align 8
  %85 = load i64, ptr %1, align 8
  %86 = and i64 %85, 4294901760
  %87 = and i64 %73, -4294901761
  %88 = or disjoint i64 %87, %86
  store i64 %88, ptr %72, align 8
  br label %asm_reg_find_decl.exit51.thread

asm_reg_find_decl.exit51.thread:                  ; preds = %81, %65, %68, %asm_reg_find_decl.exit51, %53, %asm_reg_find_decl.exit
  ret void
}